target datalayout = "e-m:e-p270:32:32-p271:32:32-p272:64:64-i64:64-i128:128-f80:128-n8:16:32:64-S128"
target triple = "x86_64-pc-linux-gnu"

%struct.ident_t = type { i32, i32, i32, i32, ptr }
%"class.ncnn::Mat" = type { ptr, ptr, i64, i32, ptr, i32, i32, i32, i32, i32, i64 }

@1 = private unnamed_addr constant %struct.ident_t { i32 0, i32 514, i32 0, i32 22, ptr @0 }, align 8

; Function Attrs: noinline noreturn nounwind uwtable
define linkonce_odr hidden void @__clang_call_terminate(ptr noundef %0) #9 comdat {
  %2 = call ptr @__cxa_begin_catch(ptr %0) #8
  call void @_ZSt9terminatev() #24
  unreachable
}

; Function Attrs: alwaysinline mustprogress nounwind uwtable
define internal void @_ZL12_mm_store_psPfDv4_f(ptr noundef %0, <4 x float> noundef nofpclass(nan inf) %1) #14 {
  %3 = alloca ptr, align 8
  %4 = alloca <4 x float>, align 16
  store ptr %0, ptr %3, align 8, !tbaa !51
  store <4 x float> %1, ptr %4, align 16, !tbaa !61
  %5 = load <4 x float>, ptr %4, align 16, !tbaa !61
  %6 = load ptr, ptr %3, align 8, !tbaa !51
  store <4 x float> %5, ptr %6, align 16, !tbaa !61
  ret void
}

; Function Attrs: alwaysinline mustprogress nounwind uwtable
define internal noundef nofpclass(nan inf) <4 x float> @_ZL11_mm_load_psPKf(ptr noundef %0) #14 {
  %2 = alloca ptr, align 8
  store ptr %0, ptr %2, align 8, !tbaa !51
  %3 = load ptr, ptr %2, align 8, !tbaa !51
  %4 = load <4 x float>, ptr %3, align 16, !tbaa !61
  ret <4 x float> %4
}

; Function Attrs: inlinehint mustprogress nounwind uwtable
define linkonce_odr noundef nonnull align 4 dereferenceable(4) ptr @_ZSt3minIiERKT_S2_S2_(ptr noundef nonnull align 4 dereferenceable(4) %0, ptr noundef nonnull align 4 dereferenceable(4) %1) #1 comdat {
  %3 = alloca ptr, align 8
  %4 = alloca ptr, align 8
  %5 = alloca ptr, align 8
  store ptr %0, ptr %4, align 8, !tbaa !50
  store ptr %1, ptr %5, align 8, !tbaa !50
  %6 = load ptr, ptr %5, align 8, !tbaa !50
  %7 = load i32, ptr %6, align 4, !tbaa !21
  %8 = load ptr, ptr %4, align 8, !tbaa !50
  %9 = load i32, ptr %8, align 4, !tbaa !21
  %10 = icmp slt i32 %7, %9
  br i1 %10, label %11, label %13

11:                                               ; preds = %2
  %12 = load ptr, ptr %5, align 8, !tbaa !50
  store ptr %12, ptr %3, align 8
  br label %15

13:                                               ; preds = %2
  %14 = load ptr, ptr %4, align 8, !tbaa !50
  store ptr %14, ptr %3, align 8
  br label %15

15:                                               ; preds = %13, %11
  %16 = load ptr, ptr %3, align 8
  ret ptr %16
}

; Function Attrs: alwaysinline mustprogress nounwind uwtable
define linkonce_odr hidden noundef ptr @_ZN4ncnn3Mat3rowEi(ptr noundef nonnull align 8 dereferenceable(72) %0, i32 noundef %1) #11 comdat align 2 {
  %3 = alloca ptr, align 8
  %4 = alloca i32, align 4
  store ptr %0, ptr %3, align 8, !tbaa !13
  store i32 %1, ptr %4, align 4, !tbaa !21
  %5 = load ptr, ptr %3, align 8
  %6 = getelementptr inbounds nuw %"class.ncnn::Mat", ptr %5, i32 0, i32 0
  %7 = load ptr, ptr %6, align 8, !tbaa !60
  %8 = getelementptr inbounds nuw %"class.ncnn::Mat", ptr %5, i32 0, i32 6
  %9 = load i32, ptr %8, align 4, !tbaa !22
  %10 = sext i32 %9 to i64
  %11 = load i32, ptr %4, align 4, !tbaa !21
  %12 = sext i32 %11 to i64
  %13 = mul i64 %10, %12
  %14 = getelementptr inbounds nuw %"class.ncnn::Mat", ptr %5, i32 0, i32 2
  %15 = load i64, ptr %14, align 8, !tbaa !25
  %16 = mul i64 %13, %15
  %17 = getelementptr inbounds nuw i8, ptr %7, i64 %16
  ret ptr %17
}

; Function Attrs: alwaysinline mustprogress nounwind uwtable
define linkonce_odr hidden noundef ptr @_ZNK4ncnn3Mat3rowEi(ptr noundef nonnull align 8 dereferenceable(72) %0, i32 noundef %1) #11 comdat align 2 {
  %3 = alloca ptr, align 8
  %4 = alloca i32, align 4
  store ptr %0, ptr %3, align 8, !tbaa !13
  store i32 %1, ptr %4, align 4, !tbaa !21
  %5 = load ptr, ptr %3, align 8
  %6 = getelementptr inbounds nuw %"class.ncnn::Mat", ptr %5, i32 0, i32 0
  %7 = load ptr, ptr %6, align 8, !tbaa !60
  %8 = getelementptr inbounds nuw %"class.ncnn::Mat", ptr %5, i32 0, i32 6
  %9 = load i32, ptr %8, align 4, !tbaa !22
  %10 = sext i32 %9 to i64
  %11 = load i32, ptr %4, align 4, !tbaa !21
  %12 = sext i32 %11 to i64
  %13 = mul i64 %10, %12
  %14 = getelementptr inbounds nuw %"class.ncnn::Mat", ptr %5, i32 0, i32 2
  %15 = load i64, ptr %14, align 8, !tbaa !25
  %16 = mul i64 %13, %15
  %17 = getelementptr inbounds nuw i8, ptr %7, i64 %16
  ret ptr %17
}

; Function Attrs: alwaysinline norecurse nounwind uwtable
define internal void @_ZNK4ncnn14Interp_x86_fma7forwardERKSt6vectorINS_3MatESaIS2_EERS4_RKNS_6OptionE.omp_outlined.6(ptr noalias noundef %0, ptr noalias noundef %1, ptr noundef nonnull align 4 dereferenceable(4) %2, ptr noundef nonnull align 8 dereferenceable(72) %3, ptr noundef nonnull align 8 dereferenceable(72) %4, ptr noundef nonnull align 4 dereferenceable(4) %5, ptr noundef nonnull align 4 dereferenceable(4) %6, ptr noundef nonnull align 4 dereferenceable(4) %7) #13 personality ptr @__gxx_personality_v0 {
  %9 = alloca ptr, align 8
  %10 = alloca ptr, align 8
  %11 = alloca ptr, align 8
  %12 = alloca ptr, align 8
  %13 = alloca ptr, align 8
  %14 = alloca ptr, align 8
  %15 = alloca ptr, align 8
  %16 = alloca ptr, align 8
  %17 = alloca ptr, align 8
  %18 = alloca ptr, align 8
  %19 = alloca i32, align 4
  %20 = alloca i32, align 4
  %21 = alloca i32, align 4
  %22 = alloca i32, align 4
  %23 = alloca i32, align 4
  %24 = alloca i32, align 4
  %25 = alloca i32, align 4
  %26 = alloca i32, align 4
  %27 = alloca i32, align 4
  %28 = alloca ptr, align 8
  %29 = alloca ptr, align 8
  %30 = alloca i32, align 4
  %31 = alloca i32, align 4
  %32 = alloca i32, align 4
  %33 = alloca i32, align 4
  %34 = alloca <4 x float>, align 16
  store ptr %0, ptr %9, align 8, !tbaa !50
  store ptr %1, ptr %10, align 8, !tbaa !50
  store ptr %2, ptr %11, align 8, !tbaa !50
  store ptr %3, ptr %12, align 8, !tbaa !13
  store ptr %4, ptr %13, align 8, !tbaa !13
  store ptr %5, ptr %14, align 8, !tbaa !50
  store ptr %6, ptr %15, align 8, !tbaa !51
  store ptr %7, ptr %16, align 8, !tbaa !50
  %35 = load ptr, ptr %11, align 8, !tbaa !50
  %36 = load ptr, ptr %12, align 8, !tbaa !13
  %37 = load ptr, ptr %13, align 8, !tbaa !13
  %38 = load ptr, ptr %14, align 8, !tbaa !50
  %39 = load ptr, ptr %15, align 8, !tbaa !51
  %40 = load ptr, ptr %16, align 8, !tbaa !50
  store ptr %36, ptr %17, align 8
  store ptr %37, ptr %18, align 8
  call void @llvm.lifetime.start.p0(i64 4, ptr %19) #8
  call void @llvm.lifetime.start.p0(i64 4, ptr %20) #8
  %41 = load i32, ptr %35, align 4, !tbaa !21
  store i32 %41, ptr %20, align 4, !tbaa !21
  call void @llvm.lifetime.start.p0(i64 4, ptr %21) #8
  %42 = load i32, ptr %20, align 4, !tbaa !21
  %43 = sub nsw i32 %42, 0
  %44 = sdiv i32 %43, 1
  %45 = sub nsw i32 %44, 1
  store i32 %45, ptr %21, align 4, !tbaa !21
  call void @llvm.lifetime.start.p0(i64 4, ptr %22) #8
  store i32 0, ptr %22, align 4, !tbaa !21
  call void @llvm.lifetime.end.p0(i64 4, ptr %22) #8
  %46 = load i32, ptr %20, align 4, !tbaa !21
  %47 = icmp slt i32 0, %46
  br i1 %47, label %48, label %119

48:                                               ; preds = %8
  call void @llvm.lifetime.start.p0(i64 4, ptr %23) #8
  store i32 0, ptr %23, align 4, !tbaa !21
  call void @llvm.lifetime.start.p0(i64 4, ptr %24) #8
  %49 = load i32, ptr %21, align 4, !tbaa !21
  store i32 %49, ptr %24, align 4, !tbaa !21
  call void @llvm.lifetime.start.p0(i64 4, ptr %25) #8
  store i32 1, ptr %25, align 4, !tbaa !21
  call void @llvm.lifetime.start.p0(i64 4, ptr %26) #8
  store i32 0, ptr %26, align 4, !tbaa !21
  call void @llvm.lifetime.start.p0(i64 4, ptr %27) #8
  %50 = load ptr, ptr %9, align 8
  %51 = load i32, ptr %50, align 4, !tbaa !21
  call void @__kmpc_for_static_init_4(ptr @1, i32 %51, i32 34, ptr %26, ptr %23, ptr %24, ptr %25, i32 1, i32 1)
  %52 = load i32, ptr %24, align 4, !tbaa !21
  %53 = load i32, ptr %21, align 4, !tbaa !21
  %54 = icmp sgt i32 %52, %53
  br i1 %54, label %55, label %57

55:                                               ; preds = %48
  %56 = load i32, ptr %21, align 4, !tbaa !21
  br label %59

57:                                               ; preds = %48
  %58 = load i32, ptr %24, align 4, !tbaa !21
  br label %59

59:                                               ; preds = %57, %55
  %60 = phi i32 [ %56, %55 ], [ %58, %57 ]
  store i32 %60, ptr %24, align 4, !tbaa !21
  %61 = load i32, ptr %23, align 4, !tbaa !21
  store i32 %61, ptr %19, align 4, !tbaa !21
  br label %62

62:                                               ; preds = %112, %59
  %63 = load i32, ptr %19, align 4, !tbaa !21
  %64 = load i32, ptr %24, align 4, !tbaa !21
  %65 = icmp sle i32 %63, %64
  br i1 %65, label %67, label %66

66:                                               ; preds = %62
  br label %115

67:                                               ; preds = %62
  %68 = load i32, ptr %19, align 4, !tbaa !21
  %69 = mul nsw i32 %68, 1
  %70 = add nsw i32 0, %69
  store i32 %70, ptr %27, align 4, !tbaa !21
  call void @llvm.lifetime.start.p0(i64 8, ptr %28) #8
  %71 = load ptr, ptr %17, align 8, !tbaa !13
  %72 = load i32, ptr %27, align 4, !tbaa !21
  %73 = invoke noundef ptr @_ZNK4ncnn3Mat3rowEi(ptr noundef nonnull align 8 dereferenceable(72) %71, i32 noundef %72)
          to label %74 unwind label %120

74:                                               ; preds = %67
  store ptr %73, ptr %28, align 8, !tbaa !51
  call void @llvm.lifetime.start.p0(i64 8, ptr %29) #8
  %75 = load ptr, ptr %18, align 8, !tbaa !13
  %76 = load i32, ptr %27, align 4, !tbaa !21
  %77 = invoke noundef ptr @_ZN4ncnn3Mat3rowEi(ptr noundef nonnull align 8 dereferenceable(72) %75, i32 noundef %76)
          to label %78 unwind label %120

78:                                               ; preds = %74
  store ptr %77, ptr %29, align 8, !tbaa !51
  call void @llvm.lifetime.start.p0(i64 4, ptr %30) #8
  store i32 0, ptr %30, align 4, !tbaa !21
  br label %79

79:                                               ; preds = %107, %78
  %80 = load i32, ptr %30, align 4, !tbaa !21
  %81 = load i32, ptr %38, align 4, !tbaa !21
  %82 = icmp slt i32 %80, %81
  br i1 %82, label %84, label %83

83:                                               ; preds = %79
  call void @llvm.lifetime.end.p0(i64 4, ptr %30) #8
  br label %110

84:                                               ; preds = %79
  call void @llvm.lifetime.start.p0(i64 4, ptr %31) #8
  call void @llvm.lifetime.start.p0(i64 4, ptr %32) #8
  %85 = load i32, ptr %30, align 4, !tbaa !21
  %86 = sitofp i32 %85 to float
  %87 = load float, ptr %39, align 4, !tbaa !49
  %88 = fmul fast float %86, %87
  %89 = fptosi float %88 to i32
  store i32 %89, ptr %32, align 4, !tbaa !21
  call void @llvm.lifetime.start.p0(i64 4, ptr %33) #8
  %90 = load i32, ptr %40, align 4, !tbaa !21
  %91 = sub nsw i32 %90, 1
  store i32 %91, ptr %33, align 4, !tbaa !21
  %92 = invoke noundef nonnull align 4 dereferenceable(4) ptr @_ZSt3minIiERKT_S2_S2_(ptr noundef nonnull align 4 dereferenceable(4) %32, ptr noundef nonnull align 4 dereferenceable(4) %33)
          to label %93 unwind label %120

93:                                               ; preds = %84
  %94 = load i32, ptr %92, align 4, !tbaa !21
  call void @llvm.lifetime.end.p0(i64 4, ptr %33) #8
  call void @llvm.lifetime.end.p0(i64 4, ptr %32) #8
  store i32 %94, ptr %31, align 4, !tbaa !21
  call void @llvm.lifetime.start.p0(i64 16, ptr %34) #8
  %95 = load ptr, ptr %28, align 8, !tbaa !51
  %96 = load i32, ptr %31, align 4, !tbaa !21
  %97 = mul nsw i32 %96, 4
  %98 = sext i32 %97 to i64
  %99 = getelementptr inbounds float, ptr %95, i64 %98
  %100 = invoke noundef nofpclass(nan inf) <4 x float> @_ZL11_mm_load_psPKf(ptr noundef %99)
          to label %101 unwind label %120

101:                                              ; preds = %93
  store <4 x float> %100, ptr %34, align 16, !tbaa !61
  %102 = load ptr, ptr %29, align 8, !tbaa !51
  %103 = load <4 x float>, ptr %34, align 16, !tbaa !61
  invoke void @_ZL12_mm_store_psPfDv4_f(ptr noundef %102, <4 x float> noundef nofpclass(nan inf) %103)
          to label %104 unwind label %120

104:                                              ; preds = %101
  %105 = load ptr, ptr %29, align 8, !tbaa !51
  %106 = getelementptr inbounds float, ptr %105, i64 4
  store ptr %106, ptr %29, align 8, !tbaa !51
  call void @llvm.lifetime.end.p0(i64 16, ptr %34) #8
  call void @llvm.lifetime.end.p0(i64 4, ptr %31) #8
  br label %107

107:                                              ; preds = %104
  %108 = load i32, ptr %30, align 4, !tbaa !21
  %109 = add nsw i32 %108, 1
  store i32 %109, ptr %30, align 4, !tbaa !21
  br label %79, !llvm.loop !85

110:                                              ; preds = %83
  call void @llvm.lifetime.end.p0(i64 8, ptr %29) #8
  call void @llvm.lifetime.end.p0(i64 8, ptr %28) #8
  br label %111

111:                                              ; preds = %110
  br label %112

112:                                              ; preds = %111
  %113 = load i32, ptr %19, align 4, !tbaa !21
  %114 = add nsw i32 %113, 1
  store i32 %114, ptr %19, align 4, !tbaa !21
  br label %62

115:                                              ; preds = %66
  br label %116

116:                                              ; preds = %115
  %117 = load ptr, ptr %9, align 8
  %118 = load i32, ptr %117, align 4, !tbaa !21
  call void @__kmpc_for_static_fini(ptr @1, i32 %118)
  call void @llvm.lifetime.end.p0(i64 4, ptr %27) #8
  call void @llvm.lifetime.end.p0(i64 4, ptr %26) #8
  call void @llvm.lifetime.end.p0(i64 4, ptr %25) #8
  call void @llvm.lifetime.end.p0(i64 4, ptr %24) #8
  call void @llvm.lifetime.end.p0(i64 4, ptr %23) #8
  br label %119

119:                                              ; preds = %116, %8
  call void @llvm.lifetime.end.p0(i64 4, ptr %21) #8
  call void @llvm.lifetime.end.p0(i64 4, ptr %20) #8
  call void @llvm.lifetime.end.p0(i64 4, ptr %19) #8
  ret void

120:                                              ; preds = %101, %93, %84, %74, %67
  %121 = landingpad { ptr, i32 }
          catch ptr null
  %122 = extractvalue { ptr, i32 } %121, 0
  call void @__clang_call_terminate(ptr %122) #24
  unreachable
}